Certificate:
    Data:
        Version: 3 (0x2)
        Serial Number: 1 (0x1)
    Signature Algorithm: sha512WithRSAEncryption
        Issuer: C=EE, ST=Tartumaa, L=Tartu, O=SA course updated CA, OU=Institute of Computer Science, CN=est/emailAddress=teacher@teacher.est
        Validity
            Not Before: May 16 22:47:40 2018 GMT
            Not After : May 16 22:47:40 2019 GMT
        Subject: C=AU, ST=Tartumaa, L=Tartu, O=System Administration course, OU=Institute of Computer Science, CN=*.rohin.est/emailAddress=debian@rohin.est
        Subject Public Key Info:
            Public Key Algorithm: rsaEncryption
                Public-Key: (4096 bit)
                Modulus:
                    00:9f:20:bc:66:10:3f:27:4a:53:07:45:bb:df:26:
                    0e:f8:5e:3d:05:1c:25:b3:dc:56:dd:17:00:e1:70:
                    70:45:b0:5c:ee:8d:64:b1:ce:9d:ef:f8:79:69:23:
                    ee:7d:40:3c:b7:c1:0b:0c:5c:7a:db:3d:39:68:ae:
                    5f:20:7a:c6:59:83:a9:c6:ac:37:1c:df:28:8c:d4:
                    bb:b8:bf:04:6d:10:fe:18:a8:a2:12:b2:f6:1e:6d:
                    11:5d:23:5d:25:0f:53:66:34:82:ff:16:e6:d6:d8:
                    ed:06:54:d1:38:bf:d1:d7:01:df:0e:38:fb:dd:b9:
                    0b:7a:d0:9e:53:41:80:7b:52:ce:cc:b0:86:60:1f:
                    dc:3b:a7:52:54:a5:c4:f7:4d:fe:71:b4:e0:7c:0b:
                    dc:9f:df:c3:83:b3:32:f5:c2:5a:be:ad:39:ef:a5:
                    c8:63:55:4f:2e:d6:72:c4:0b:32:c2:45:90:11:32:
                    9d:8d:7b:bf:ff:99:fb:f9:bf:58:78:4d:8d:ba:a8:
                    b1:7c:cf:5f:4d:a8:28:86:e7:9b:bb:df:ae:fc:2b:
                    c8:81:94:1b:5a:97:b3:9f:c6:ad:29:1e:f9:e8:da:
                    ec:14:1c:2c:8e:b3:ce:c0:6e:13:ac:a0:5b:f0:4d:
                    b8:33:c4:fe:33:90:91:b1:d0:ac:1f:46:41:bd:13:
                    c7:83:a0:f7:09:bf:3f:ec:18:b1:b6:54:69:6c:6b:
                    51:fb:28:b1:54:64:24:00:8a:17:2b:34:62:6a:83:
                    d7:16:53:ef:62:68:49:2d:4b:65:7f:05:c4:08:40:
                    b5:06:e8:34:1e:2b:f5:e5:22:39:d9:a8:24:2b:b6:
                    0c:bb:f9:a7:52:36:32:b8:ff:0b:2e:6f:3b:09:42:
                    61:6e:31:63:2a:8a:cf:c0:bb:18:2e:d1:72:3d:2f:
                    7f:2f:ba:7b:c6:3e:c8:a2:80:52:5c:7e:9e:49:98:
                    32:3f:3e:88:0d:7e:fc:00:9f:98:ff:bd:de:5d:b6:
                    db:9a:f2:ee:7d:a8:0f:4e:8f:6d:ae:09:3a:16:0a:
                    df:75:c4:f6:ca:84:e6:80:41:53:29:5d:9c:1e:64:
                    38:6f:f2:2f:c0:e6:d1:be:15:fd:ba:71:3a:74:3a:
                    34:ce:a7:3d:c4:dd:c7:27:01:ad:4c:34:fa:30:1f:
                    d3:ea:82:f6:8e:71:ee:d0:fd:4d:a2:1a:58:5f:ff:
                    e3:33:79:5f:57:38:2e:7f:64:ef:72:43:d5:3a:e9:
                    20:ff:3c:74:b1:0d:01:29:5b:6f:f7:6b:2d:a0:d2:
                    58:7a:b3:1d:2a:d3:70:f6:00:ad:13:e4:34:5e:4f:
                    a4:a3:b7:28:00:e4:dc:fe:e0:a9:90:78:53:e2:c8:
                    b9:bc:23
                Exponent: 65537 (0x10001)
        X509v3 extensions:
            X509v3 Basic Constraints: 
                CA:FALSE
            Netscape Comment: 
                OpenSSL Generated Certificate
            X509v3 Subject Key Identifier: 
                93:CC:58:93:CB:7B:92:D1:2C:0A:0B:66:90:2B:FE:7F:69:C7:BE:B8
            X509v3 Authority Key Identifier: 
                keyid:05:7D:6C:64:4C:7E:73:5D:8B:B1:50:2B:CB:04:74:63:B4:A8:60:2A

            X509v3 Subject Alternative Name: 
                DNS:*.rohin.est, DNS:rohin.est, DNS:mail.rohin.est
    Signature Algorithm: sha512WithRSAEncryption
         98:7d:f2:cb:89:6f:8c:16:5d:59:69:c0:26:39:7b:92:b2:cd:
         43:26:8c:4b:27:78:56:5c:81:ad:fd:e3:d2:d0:ab:69:05:c0:
         49:f0:92:44:c5:78:fa:b7:f6:37:ed:90:b9:f7:ab:fc:54:42:
         60:86:c4:29:32:e1:a1:51:c1:9f:a1:02:bd:3e:39:fc:6c:72:
         ec:6f:bb:0e:00:0c:4c:68:2a:54:5f:9b:20:7c:58:92:17:c4:
         11:c3:7e:21:4f:f9:86:23:49:42:f0:0f:2e:31:b3:67:d6:09:
         f2:2a:6f:91:a9:e7:f5:35:52:e1:0f:93:54:db:64:ea:93:54:
         16:ae:cb:20:ea:c1:d9:d6:9e:f7:82:85:50:00:5e:8d:45:63:
         2b:cf:be:bb:e8:2b:9f:29:5c:86:8f:7e:d8:11:22:ec:fa:d1:
         63:be:a6:4f:3f:0b:b9:d7:4e:80:35:32:e5:1b:aa:87:00:76:
         ca:3b:1a:91:1c:07:b0:04:37:99:fd:f8:42:10:ce:3f:61:af:
         4e:02:cf:88:ed:63:3c:6e:aa:97:fb:e7:ca:16:d7:b4:6d:b4:
         2a:9c:a7:ee:6b:8f:ee:01:7f:d9:55:21:3b:f5:90:a8:ee:0b:
         25:c2:43:d1:5f:c2:f7:d8:d7:c6:49:95:94:8a:ce:ba:26:53:
         42:35:9d:4d:b9:cf:05:8f:78:41:74:a9:08:4e:fc:be:7c:48:
         62:70:0c:42:6d:a4:65:c7:a3:96:b2:09:23:f5:6c:91:6d:45:
         bd:70:48:17:e2:ec:61:0e:87:19:a7:49:47:4c:5f:79:b3:38:
         21:45:9d:9b:9d:02:eb:3f:55:c5:83:0b:e4:3f:f1:8d:10:66:
         3b:c6:00:be:0e:22:4f:de:df:8e:22:eb:1e:a4:9b:1d:2f:00:
         ac:ab:a1:a9:cf:e3:65:48:f0:0f:36:b3:7c:ab:93:c4:e0:aa:
         23:93:24:6c:b1:45:d1:ec:c8:57:4c:6b:ad:a9:83:5f:e2:f7:
         0e:f0:68:d7:ac:ea:15:a3:42:b0:a8:10:e9:a8:80:c8:95:7b:
         1a:da:65:dd:25:0c:e0:4c:69:c6:f4:d0:45:9f:d2:97:67:35:
         91:c3:11:9c:6a:c2:1f:ab:5c:69:fc:53:75:f1:cf:56:10:9d:
         b9:81:2b:06:d6:52:05:1f:e1:8f:5b:b2:b0:21:5e:f2:aa:0c:
         c4:47:81:16:30:df:64:f5:71:15:fb:bd:06:24:6b:69:7e:07:
         d2:e9:23:80:88:5d:16:aa:78:f3:da:91:2d:b9:af:be:2b:f3:
         d7:e1:9f:b3:67:d9:9c:59:85:07:bf:a5:07:e2:fe:fa:0d:fc:
         2c:e1:ac:dc:cc:11:af:16
-----BEGIN CERTIFICATE-----
MIIGjDCCBHSgAwIBAgIBATANBgkqhkiG9w0BAQ0FADCBqTELMAkGA1UEBhMCRUUx
ETAPBgNVBAgMCFRhcnR1bWFhMQ4wDAYDVQQHDAVUYXJ0dTEdMBsGA1UECgwUU0Eg
Y291cnNlIHVwZGF0ZWQgQ0ExJjAkBgNVBAsMHUluc3RpdHV0ZSBvZiBDb21wdXRl
ciBTY2llbmNlMQwwCgYDVQQDDANlc3QxIjAgBgkqhkiG9w0BCQEWE3RlYWNoZXJA
dGVhY2hlci5lc3QwHhcNMTgwNTE2MjI0NzQwWhcNMTkwNTE2MjI0NzQwWjCBtjEL
MAkGA1UEBhMCQVUxETAPBgNVBAgMCFRhcnR1bWFhMQ4wDAYDVQQHDAVUYXJ0dTEl
MCMGA1UECgwcU3lzdGVtIEFkbWluaXN0cmF0aW9uIGNvdXJzZTEmMCQGA1UECwwd
SW5zdGl0dXRlIG9mIENvbXB1dGVyIFNjaWVuY2UxFDASBgNVBAMMCyoucm9oaW4u
ZXN0MR8wHQYJKoZIhvcNAQkBFhBkZWJpYW5Acm9oaW4uZXN0MIICIjANBgkqhkiG
9w0BAQEFAAOCAg8AMIICCgKCAgEAnyC8ZhA/J0pTB0W73yYO+F49BRwls9xW3RcA
4XBwRbBc7o1ksc6d7/h5aSPufUA8t8ELDFx62z05aK5fIHrGWYOpxqw3HN8ojNS7
uL8EbRD+GKiiErL2Hm0RXSNdJQ9TZjSC/xbm1tjtBlTROL/R1wHfDjj73bkLetCe
U0GAe1LOzLCGYB/cO6dSVKXE903+cbTgfAvcn9/Dg7My9cJavq0576XIY1VPLtZy
xAsywkWQETKdjXu//5n7+b9YeE2NuqixfM9fTagohuebu9+u/CvIgZQbWpezn8at
KR756NrsFBwsjrPOwG4TrKBb8E24M8T+M5CRsdCsH0ZBvRPHg6D3Cb8/7BixtlRp
bGtR+yixVGQkAIoXKzRiaoPXFlPvYmhJLUtlfwXECEC1Bug0Hiv15SI52agkK7YM
u/mnUjYyuP8LLm87CUJhbjFjKorPwLsYLtFyPS9/L7p7xj7IooBSXH6eSZgyPz6I
DX78AJ+Y/73eXbbbmvLufagPTo9trgk6FgrfdcT2yoTmgEFTKV2cHmQ4b/IvwObR
vhX9unE6dDo0zqc9xN3HJwGtTDT6MB/T6oL2jnHu0P1NohpYX//jM3lfVzguf2Tv
ckPVOukg/zx0sQ0BKVtv92stoNJYerMdKtNw9gCtE+Q0Xk+ko7coAOTc/uCpkHhT
4si5vCMCAwEAAaOBrzCBrDAJBgNVHRMEAjAAMCwGCWCGSAGG+EIBDQQfFh1PcGVu
U1NMIEdlbmVyYXRlZCBDZXJ0aWZpY2F0ZTAdBgNVHQ4EFgQUk8xYk8t7ktEsCgtm
kCv+f2nHvrgwHwYDVR0jBBgwFoAUBX1sZEx+c12LsVArywR0Y7SoYCowMQYDVR0R
BCowKIILKi5yb2hpbi5lc3SCCXJvaGluLmVzdIIObWFpbC5yb2hpbi5lc3QwDQYJ
KoZIhvcNAQENBQADggIBAJh98suJb4wWXVlpwCY5e5KyzUMmjEsneFZcga3949LQ
q2kFwEnwkkTFePq39jftkLn3q/xUQmCGxCky4aFRwZ+hAr0+Ofxscuxvuw4ADExo
KlRfmyB8WJIXxBHDfiFP+YYjSULwDy4xs2fWCfIqb5Gp5/U1UuEPk1TbZOqTVBau
yyDqwdnWnveChVAAXo1FYyvPvrvoK58pXIaPftgRIuz60WO+pk8/C7nXToA1MuUb
qocAdso7GpEcB7AEN5n9+EIQzj9hr04Cz4jtYzxuqpf758oW17RttCqcp+5rj+4B
f9lVITv1kKjuCyXCQ9FfwvfY18ZJlZSKzromU0I1nU25zwWPeEF0qQhO/L58SGJw
DEJtpGXHo5ayCSP1bJFtRb1wSBfi7GEOhxmnSUdMX3mzOCFFnZudAus/VcWDC+Q/
8Y0QZjvGAL4OIk/e344i6x6kmx0vAKyroanP42VI8A82s3yrk8TgqiOTJGyxRdHs
yFdMa62pg1/i9w7waNes6hWjQrCoEOmogMiVexraZd0lDOBMacb00EWf0pdnNZHD
EZxqwh+rXGn8U3Xxz1YQnbmBKwbWUgUf4Y9bsrAhXvKqDMRHgRYw32T1cRX7vQYk
a2l+B9LpI4CIXRaqePPakS25r74r89fhn7Nn2ZxZhQe/pQfi/voN/CzhrNzMEa8W
-----END CERTIFICATE-----
