Certificate:
    Data:
        Version: 3 (0x2)
        Serial Number: 1 (0x1)
    Signature Algorithm: sha512WithRSAEncryption
        Issuer: C=EE, ST=Tartumaa, L=Tartu, O=SystemAdministration course CA, OU=Institute of Computer Science, CN=TLD SA course CA/emailAddress=teacher@teacher.est
        Validity
            Not Before: Apr 30 16:11:11 2018 GMT
            Not After : Apr 30 16:11:11 2019 GMT
        Subject: C=AU, ST=Tartumaa, L=Tartu, O=System Administration course, OU=Institute of Computer Science, CN=*.rohin.est/emailAddress=debian@rohin.est
        Subject Public Key Info:
            Public Key Algorithm: rsaEncryption
                Public-Key: (4096 bit)
                Modulus:
                    00:cf:99:1e:b8:29:3a:72:66:fc:fc:1c:99:8f:50:
                    05:0f:fe:2d:d1:b0:69:a8:d6:7f:21:b0:d0:8a:fe:
                    16:34:17:b6:ce:70:67:b1:1e:e8:17:49:52:25:e8:
                    cc:cb:fc:66:71:2e:59:5b:7d:f8:10:61:b6:9b:16:
                    a7:14:71:dd:ba:58:bb:69:d7:e9:e2:4e:44:6a:68:
                    34:71:0a:d2:85:18:12:60:02:44:c6:13:33:ac:1a:
                    0f:02:37:c4:6e:05:8d:2d:3e:8a:5c:b1:b1:d7:9e:
                    33:f1:5d:45:68:65:bf:47:74:76:50:e4:59:cb:bd:
                    46:a3:33:09:00:e0:fe:41:b3:f1:21:91:01:e2:29:
                    0f:c3:5b:bf:e8:4f:f6:78:13:b9:ef:f9:0b:ff:1e:
                    08:02:65:fc:4c:97:2b:cb:9b:b5:02:a0:4d:80:a6:
                    6a:f6:c3:5d:b0:eb:65:52:aa:44:8e:00:de:40:0c:
                    50:0c:90:cc:51:f1:3c:18:80:1c:6c:51:31:7b:be:
                    5c:86:a8:fb:14:a2:31:ee:5f:63:c8:f9:1e:96:67:
                    c3:3b:2b:40:97:0b:5d:51:b3:f2:71:ca:d5:1f:fe:
                    1b:13:03:e8:c2:4f:59:ac:3c:f1:52:01:73:47:ec:
                    5d:5b:71:b3:09:8b:b2:40:67:2c:e6:d8:91:5e:29:
                    81:a0:18:52:38:91:06:4e:f7:d9:aa:19:a5:b1:b7:
                    fc:01:30:3f:1e:ad:d8:e0:c3:4f:00:b5:a0:97:bf:
                    ab:c8:bf:b5:26:31:6c:e7:bf:6d:3a:64:76:e7:2f:
                    d7:38:8b:cf:04:aa:2a:ab:e0:5e:b8:90:2e:54:26:
                    fa:bd:6e:41:05:50:7e:0c:03:27:0e:f3:eb:07:6a:
                    30:4f:b3:32:52:43:0f:d6:7f:69:f8:3b:3b:75:e2:
                    f8:ca:0d:36:51:e5:5d:a3:c4:00:6d:3c:1c:48:df:
                    67:a3:ee:fa:7b:19:0f:57:ea:f4:d4:d0:ea:9b:30:
                    9a:4b:41:88:59:ae:d0:80:a5:50:1e:a4:d7:ec:74:
                    2a:15:31:db:12:4a:12:97:13:81:87:9a:16:cb:0d:
                    52:97:5a:59:2e:d5:8f:96:74:1d:0e:b2:ef:16:96:
                    61:cb:04:11:01:89:fb:de:c0:5a:c3:ab:5e:9c:39:
                    fb:53:f3:97:20:67:e4:a4:40:2d:e5:98:5f:3f:b3:
                    4b:8a:51:93:10:a6:68:7a:9a:29:47:98:ba:cf:24:
                    32:24:ee:d3:20:73:26:8b:04:04:be:8c:8d:ea:d2:
                    8b:5a:73:76:3a:04:56:d2:5e:a1:38:74:1e:aa:4d:
                    a9:12:22:c0:05:bc:32:67:59:06:d7:66:e8:ef:4c:
                    2c:08:6b
                Exponent: 65537 (0x10001)
        X509v3 extensions:
            X509v3 Basic Constraints: 
                CA:FALSE
            Netscape Comment: 
                OpenSSL Generated Certificate
            X509v3 Subject Key Identifier: 
                D3:1B:F8:AC:BD:BB:3B:D9:55:78:53:0E:39:51:51:63:57:A4:FC:CA
            X509v3 Authority Key Identifier: 
                keyid:F8:5E:CD:27:8A:4A:A1:19:38:7D:38:A4:15:5F:75:62:29:61:75:68

            X509v3 Subject Alternative Name: 
                DNS:*.rohin.est, DNS:rohin.est, DNS:mail.rohin.est
    Signature Algorithm: sha512WithRSAEncryption
         2d:ae:54:3e:79:0e:53:c0:2b:46:84:35:b8:b8:52:0b:e8:46:
         3a:67:17:e6:d9:f0:33:ea:58:19:4b:4b:be:51:4f:2a:2b:83:
         5e:c0:2f:87:4b:85:58:b0:0d:d8:79:e1:45:fa:d7:5e:e9:26:
         fd:82:7b:85:3b:95:90:fd:22:0f:f9:c3:9c:88:a3:af:b4:0b:
         eb:f1:5b:b7:08:26:d4:5f:bd:c0:a1:1d:cb:7b:1a:22:02:6a:
         1d:0c:41:58:07:81:db:94:bb:25:03:08:ed:83:ea:3b:36:a6:
         3d:7d:2f:07:87:f9:0c:d6:7e:5d:91:13:66:14:f1:83:82:0a:
         c5:74:2a:cd:5c:48:e1:6b:6a:da:b5:56:93:08:c0:af:6f:47:
         57:eb:7c:4b:ef:14:3a:ff:b4:a6:a9:79:6f:c3:14:d6:ae:9d:
         21:bf:55:32:19:2b:5b:dc:62:ae:dc:86:6b:26:74:42:5f:b7:
         a9:76:1c:ca:f6:b0:24:43:6c:66:9d:33:eb:cf:be:41:e5:5b:
         1a:51:18:d4:2a:17:37:c0:38:19:f2:e5:1c:2e:8e:9f:1b:65:
         a8:9d:89:94:b4:a4:30:03:31:b7:cd:12:96:1c:bb:1c:fa:42:
         e1:eb:e3:e9:2a:f6:01:a9:21:63:fe:50:2f:e2:d7:6b:54:5f:
         f4:7e:2a:5d:79:e4:4c:ec:bb:d0:f0:f2:54:9a:79:be:3e:f8:
         0d:51:75:dd:ce:3c:88:52:4d:87:d7:27:22:89:7a:82:6f:b0:
         fa:8c:d6:b1:9c:d2:ff:1e:c9:e5:8c:91:bf:d3:16:f8:0b:bc:
         b7:6b:e1:b9:f2:44:2b:b2:bb:7b:d1:4e:56:56:52:ac:8f:17:
         e2:45:4c:4b:6a:75:8e:5c:ff:96:eb:d8:dc:3e:d1:28:29:94:
         d5:21:ed:0a:8a:98:bd:15:29:d5:49:b3:aa:fc:38:27:ad:f8:
         44:dc:a8:19:3e:b0:d5:c7:33:e9:1c:a7:d2:34:93:a1:94:bd:
         39:ba:0f:38:28:e2:28:b8:99:57:83:96:2c:23:19:af:9e:d3:
         8a:b5:e0:31:92:28:8a:e4:5c:e3:04:88:de:9e:75:68:08:7b:
         6c:9b:86:1a:e4:3d:8c:cb:33:e7:27:05:4b:c1:df:1d:91:a5:
         74:e0:51:a6:f5:02:7f:70:d1:57:a2:02:76:82:55:b1:6c:37:
         c4:1a:4e:e1:46:9e:e0:42:5d:96:36:3e:c8:32:b2:66:58:57:
         6d:60:37:c1:a0:ee:62:47:db:70:35:0c:b0:15:dd:3c:c1:0e:
         9e:6c:da:5c:5c:bc:34:89:54:5e:21:b0:cf:56:d0:9e:41:5a:
         4f:4c:bf:66:ce:01:b9:2b
-----BEGIN CERTIFICATE-----
MIIGozCCBIugAwIBAgIBATANBgkqhkiG9w0BAQ0FADCBwDELMAkGA1UEBhMCRUUx
ETAPBgNVBAgMCFRhcnR1bWFhMQ4wDAYDVQQHDAVUYXJ0dTEnMCUGA1UECgweU3lz
dGVtQWRtaW5pc3RyYXRpb24gY291cnNlIENBMSYwJAYDVQQLDB1JbnN0aXR1dGUg
b2YgQ29tcHV0ZXIgU2NpZW5jZTEZMBcGA1UEAwwQVExEIFNBIGNvdXJzZSBDQTEi
MCAGCSqGSIb3DQEJARYTdGVhY2hlckB0ZWFjaGVyLmVzdDAeFw0xODA0MzAxNjEx
MTFaFw0xOTA0MzAxNjExMTFaMIG2MQswCQYDVQQGEwJBVTERMA8GA1UECAwIVGFy
dHVtYWExDjAMBgNVBAcMBVRhcnR1MSUwIwYDVQQKDBxTeXN0ZW0gQWRtaW5pc3Ry
YXRpb24gY291cnNlMSYwJAYDVQQLDB1JbnN0aXR1dGUgb2YgQ29tcHV0ZXIgU2Np
ZW5jZTEUMBIGA1UEAwwLKi5yb2hpbi5lc3QxHzAdBgkqhkiG9w0BCQEWEGRlYmlh
bkByb2hpbi5lc3QwggIiMA0GCSqGSIb3DQEBAQUAA4ICDwAwggIKAoICAQDPmR64
KTpyZvz8HJmPUAUP/i3RsGmo1n8hsNCK/hY0F7bOcGexHugXSVIl6MzL/GZxLllb
ffgQYbabFqcUcd26WLtp1+niTkRqaDRxCtKFGBJgAkTGEzOsGg8CN8RuBY0tPopc
sbHXnjPxXUVoZb9HdHZQ5FnLvUajMwkA4P5Bs/EhkQHiKQ/DW7/oT/Z4E7nv+Qv/
HggCZfxMlyvLm7UCoE2Apmr2w12w62VSqkSOAN5ADFAMkMxR8TwYgBxsUTF7vlyG
qPsUojHuX2PI+R6WZ8M7K0CXC11Rs/JxytUf/hsTA+jCT1msPPFSAXNH7F1bcbMJ
i7JAZyzm2JFeKYGgGFI4kQZO99mqGaWxt/wBMD8erdjgw08AtaCXv6vIv7UmMWzn
v206ZHbnL9c4i88Eqiqr4F64kC5UJvq9bkEFUH4MAycO8+sHajBPszJSQw/Wf2n4
Ozt14vjKDTZR5V2jxABtPBxI32ej7vp7GQ9X6vTU0OqbMJpLQYhZrtCApVAepNfs
dCoVMdsSShKXE4GHmhbLDVKXWlku1Y+WdB0Osu8WlmHLBBEBifvewFrDq16cOftT
85cgZ+SkQC3lmF8/s0uKUZMQpmh6milHmLrPJDIk7tMgcyaLBAS+jI3q0otac3Y6
BFbSXqE4dB6qTakSIsAFvDJnWQbXZujvTCwIawIDAQABo4GvMIGsMAkGA1UdEwQC
MAAwLAYJYIZIAYb4QgENBB8WHU9wZW5TU0wgR2VuZXJhdGVkIENlcnRpZmljYXRl
MB0GA1UdDgQWBBTTG/isvbs72VV4Uw45UVFjV6T8yjAfBgNVHSMEGDAWgBT4Xs0n
ikqhGTh9OKQVX3ViKWF1aDAxBgNVHREEKjAoggsqLnJvaGluLmVzdIIJcm9oaW4u
ZXN0gg5tYWlsLnJvaGluLmVzdDANBgkqhkiG9w0BAQ0FAAOCAgEALa5UPnkOU8Ar
RoQ1uLhSC+hGOmcX5tnwM+pYGUtLvlFPKiuDXsAvh0uFWLAN2HnhRfrXXukm/YJ7
hTuVkP0iD/nDnIijr7QL6/Fbtwgm1F+9wKEdy3saIgJqHQxBWAeB25S7JQMI7YPq
OzamPX0vB4f5DNZ+XZETZhTxg4IKxXQqzVxI4Wtq2rVWkwjAr29HV+t8S+8UOv+0
pql5b8MU1q6dIb9VMhkrW9xirtyGayZ0Ql+3qXYcyvawJENsZp0z68++QeVbGlEY
1CoXN8A4GfLlHC6OnxtlqJ2JlLSkMAMxt80Slhy7HPpC4evj6Sr2AakhY/5QL+LX
a1Rf9H4qXXnkTOy70PDyVJp5vj74DVF13c48iFJNh9cnIol6gm+w+ozWsZzS/x7J
5YyRv9MW+Au8t2vhufJEK7K7e9FOVlZSrI8X4kVMS2p1jlz/luvY3D7RKCmU1SHt
CoqYvRUp1Umzqvw4J634RNyoGT6w1ccz6Ryn0jSToZS9OboPOCjiKLiZV4OWLCMZ
r57TirXgMZIoiuRc4wSI3p51aAh7bJuGGuQ9jMsz5ycFS8HfHZGldOBRpvUCf3DR
V6ICdoJVsWw3xBpO4Uae4EJdljY+yDKyZlhXbWA3waDuYkfbcDUMsBXdPMEOnmza
XFy8NIlUXiGwz1bQnkFaT0y/Zs4BuSs=
-----END CERTIFICATE-----
